target datalayout = "e-m:e-p270:32:32-p271:32:32-p272:64:64-i64:64-i128:128-f80:128-n8:16:32:64-S128"
target triple = "x86_64-pc-linux-gnu"

@advertise_sid = internal global i32 -1, align 4
@.str.11 = private unnamed_addr constant [22 x i8] c"transfer.advertisesid\00", align 1

; Function Attrs: inlinehint nounwind uwtable
define internal void @strbuf_addstr(ptr noundef %0, ptr noundef %1) #4 {
  %3 = alloca ptr, align 8
  %4 = alloca ptr, align 8
  store ptr %0, ptr %3, align 8, !tbaa !22
  store ptr %1, ptr %4, align 8, !tbaa !24
  %5 = load ptr, ptr %3, align 8, !tbaa !22
  %6 = load ptr, ptr %4, align 8, !tbaa !24
  %7 = load ptr, ptr %4, align 8, !tbaa !24
  %8 = call i64 @strlen(ptr noundef %7) #8
  call void @strbuf_add(ptr noundef %5, ptr noundef %6, i64 noundef %8)
  ret void
}

; Function Attrs: nounwind uwtable
define internal i32 @session_id_advertise(ptr noundef %0, ptr noundef %1) #0 {
  %3 = alloca i32, align 4
  %4 = alloca ptr, align 8
  %5 = alloca ptr, align 8
  store ptr %0, ptr %4, align 8, !tbaa !4
  store ptr %1, ptr %5, align 8, !tbaa !22
  %6 = load i32, ptr @advertise_sid, align 4, !tbaa !25
  %7 = icmp eq i32 %6, -1
  br i1 %7, label %8, label %13

8:                                                ; preds = %2
  %9 = load ptr, ptr %4, align 8, !tbaa !4
  %10 = call i32 @repo_config_get_bool(ptr noundef %9, ptr noundef @.str.11, ptr noundef @advertise_sid)
  %11 = icmp ne i32 %10, 0
  br i1 %11, label %12, label %13

12:                                               ; preds = %8
  store i32 0, ptr @advertise_sid, align 4, !tbaa !25
  br label %13

13:                                               ; preds = %12, %8, %2
  %14 = load i32, ptr @advertise_sid, align 4, !tbaa !25
  %15 = icmp ne i32 %14, 0
  br i1 %15, label %17, label %16

16:                                               ; preds = %13
  store i32 0, ptr %3, align 4
  br label %24

17:                                               ; preds = %13
  %18 = load ptr, ptr %5, align 8, !tbaa !22
  %19 = icmp ne ptr %18, null
  br i1 %19, label %20, label %23

20:                                               ; preds = %17
  %21 = load ptr, ptr %5, align 8, !tbaa !22
  %22 = call ptr @trace2_session_id()
  call void @strbuf_addstr(ptr noundef %21, ptr noundef %22)
  br label %23

23:                                               ; preds = %20, %17
  store i32 1, ptr %3, align 4
  br label %24

24:                                               ; preds = %23, %16
  %25 = load i32, ptr %3, align 4
  ret i32 %25
}