; Function Attrs: nounwind uwtable
define internal range(i32 0, 2) i32 @session_id_advertise(ptr noundef %0, ptr noundef %1) #0 {
  %3 = load i32, ptr @advertise_sid, align 4, !tbaa !29
  %4 = icmp eq i32 %3, -1
  br i1 %4, label %5, label %7

5:                                                ; preds = %2
  %6 = tail call i32 @repo_config_get_bool(ptr noundef %0, ptr noundef nonnull @.str.11, ptr noundef nonnull @advertise_sid) #7
  %.not = icmp eq i32 %6, 0
  br i1 %.not, label %thread-pre-split, label %.thread

.thread:                                          ; preds = %5
  store i32 0, ptr @advertise_sid, align 4, !tbaa !29
  br label %13

thread-pre-split:                                 ; preds = %5
  %.pr = load i32, ptr @advertise_sid, align 4, !tbaa !29
  br label %7

7:                                                ; preds = %thread-pre-split, %2
  %8 = phi i32 [ %.pr, %thread-pre-split ], [ %3, %2 ]
  %.not4 = icmp eq i32 %8, 0
  br i1 %.not4, label %13, label %9

9:                                                ; preds = %7
  %.not5 = icmp eq ptr %1, null
  br i1 %.not5, label %13, label %10

10:                                               ; preds = %9
  %11 = tail call ptr @trace2_session_id() #7
  %12 = tail call i64 @strlen(ptr noundef nonnull dereferenceable(1) %11) #8
  tail call void @strbuf_add(ptr noundef nonnull %1, ptr noundef nonnull %11, i64 noundef %12) #7
  br label %13

13:                                               ; preds = %.thread, %9, %10, %7
  %.0 = phi i32 [ 0, %7 ], [ 1, %10 ], [ 1, %9 ], [ 0, %.thread ]
  ret i32 %.0
}